target datalayout = "e-m:e-p270:32:32-p271:32:32-p272:64:64-i64:64-i128:128-f80:128-n8:16:32:64-S128"
target triple = "x86_64-unknown-linux-gnu"

%struct.AudiodevOssOptions = type { ptr, ptr, i8, i8, i8, i8, i8, i32 }

@.str.9 = private unnamed_addr constant [3 x i8] c"in\00", align 1
@.str.10 = private unnamed_addr constant [4 x i8] c"out\00", align 1
@.str.22 = private unnamed_addr constant [9 x i8] c"try-mmap\00", align 1
@.str.23 = private unnamed_addr constant [10 x i8] c"exclusive\00", align 1
@.str.24 = private unnamed_addr constant [11 x i8] c"dsp-policy\00", align 1

; Function Attrs: nounwind sspstrong uwtable
define dso_local zeroext i1 @visit_type_AudiodevOssOptions_members(ptr noundef %v, ptr noundef %obj, ptr noundef %errp) #0 {
entry:
  %retval = alloca i1, align 1
  %v.addr = alloca ptr, align 8
  %obj.addr = alloca ptr, align 8
  %errp.addr = alloca ptr, align 8
  %has_in = alloca i8, align 1
  %has_out = alloca i8, align 1
  store ptr %v, ptr %v.addr, align 8
  store ptr %obj, ptr %obj.addr, align 8
  store ptr %errp, ptr %errp.addr, align 8
  %0 = load ptr, ptr %obj.addr, align 8
  %in = getelementptr inbounds %struct.AudiodevOssOptions, ptr %0, i32 0, i32 0
  %1 = load ptr, ptr %in, align 8
  %tobool = icmp ne ptr %1, null
  %lnot = xor i1 %tobool, true
  %lnot1 = xor i1 %lnot, true
  %frombool = zext i1 %lnot1 to i8
  store i8 %frombool, ptr %has_in, align 1
  %2 = load ptr, ptr %obj.addr, align 8
  %out = getelementptr inbounds %struct.AudiodevOssOptions, ptr %2, i32 0, i32 1
  %3 = load ptr, ptr %out, align 8
  %tobool2 = icmp ne ptr %3, null
  %lnot3 = xor i1 %tobool2, true
  %lnot4 = xor i1 %lnot3, true
  %frombool5 = zext i1 %lnot4 to i8
  store i8 %frombool5, ptr %has_out, align 1
  %4 = load ptr, ptr %v.addr, align 8
  %call = call zeroext i1 @visit_optional(ptr noundef %4, ptr noundef @.str.9, ptr noundef %has_in)
  br i1 %call, label %if.then, label %if.end9

if.then:                                          ; preds = %entry
  %5 = load ptr, ptr %v.addr, align 8
  %6 = load ptr, ptr %obj.addr, align 8
  %in6 = getelementptr inbounds %struct.AudiodevOssOptions, ptr %6, i32 0, i32 0
  %7 = load ptr, ptr %errp.addr, align 8
  %call7 = call zeroext i1 @visit_type_AudiodevOssPerDirectionOptions(ptr noundef %5, ptr noundef @.str.9, ptr noundef %in6, ptr noundef %7)
  br i1 %call7, label %if.end, label %if.then8

if.then8:                                         ; preds = %if.then
  store i1 false, ptr %retval, align 1
  br label %return

if.end:                                           ; preds = %if.then
  br label %if.end9

if.end9:                                          ; preds = %if.end, %entry
  %8 = load ptr, ptr %v.addr, align 8
  %call10 = call zeroext i1 @visit_optional(ptr noundef %8, ptr noundef @.str.10, ptr noundef %has_out)
  br i1 %call10, label %if.then11, label %if.end16

if.then11:                                        ; preds = %if.end9
  %9 = load ptr, ptr %v.addr, align 8
  %10 = load ptr, ptr %obj.addr, align 8
  %out12 = getelementptr inbounds %struct.AudiodevOssOptions, ptr %10, i32 0, i32 1
  %11 = load ptr, ptr %errp.addr, align 8
  %call13 = call zeroext i1 @visit_type_AudiodevOssPerDirectionOptions(ptr noundef %9, ptr noundef @.str.10, ptr noundef %out12, ptr noundef %11)
  br i1 %call13, label %if.end15, label %if.then14

if.then14:                                        ; preds = %if.then11
  store i1 false, ptr %retval, align 1
  br label %return

if.end15:                                         ; preds = %if.then11
  br label %if.end16

if.end16:                                         ; preds = %if.end15, %if.end9
  %12 = load ptr, ptr %v.addr, align 8
  %13 = load ptr, ptr %obj.addr, align 8
  %has_try_mmap = getelementptr inbounds %struct.AudiodevOssOptions, ptr %13, i32 0, i32 2
  %call17 = call zeroext i1 @visit_optional(ptr noundef %12, ptr noundef @.str.22, ptr noundef %has_try_mmap)
  br i1 %call17, label %if.then18, label %if.end22

if.then18:                                        ; preds = %if.end16
  %14 = load ptr, ptr %v.addr, align 8
  %15 = load ptr, ptr %obj.addr, align 8
  %try_mmap = getelementptr inbounds %struct.AudiodevOssOptions, ptr %15, i32 0, i32 3
  %16 = load ptr, ptr %errp.addr, align 8
  %call19 = call zeroext i1 @visit_type_bool(ptr noundef %14, ptr noundef @.str.22, ptr noundef %try_mmap, ptr noundef %16)
  br i1 %call19, label %if.end21, label %if.then20

if.then20:                                        ; preds = %if.then18
  store i1 false, ptr %retval, align 1
  br label %return

if.end21:                                         ; preds = %if.then18
  br label %if.end22

if.end22:                                         ; preds = %if.end21, %if.end16
  %17 = load ptr, ptr %v.addr, align 8
  %18 = load ptr, ptr %obj.addr, align 8
  %has_exclusive = getelementptr inbounds %struct.AudiodevOssOptions, ptr %18, i32 0, i32 4
  %call23 = call zeroext i1 @visit_optional(ptr noundef %17, ptr noundef @.str.23, ptr noundef %has_exclusive)
  br i1 %call23, label %if.then24, label %if.end28

if.then24:                                        ; preds = %if.end22
  %19 = load ptr, ptr %v.addr, align 8
  %20 = load ptr, ptr %obj.addr, align 8
  %exclusive = getelementptr inbounds %struct.AudiodevOssOptions, ptr %20, i32 0, i32 5
  %21 = load ptr, ptr %errp.addr, align 8
  %call25 = call zeroext i1 @visit_type_bool(ptr noundef %19, ptr noundef @.str.23, ptr noundef %exclusive, ptr noundef %21)
  br i1 %call25, label %if.end27, label %if.then26

if.then26:                                        ; preds = %if.then24
  store i1 false, ptr %retval, align 1
  br label %return

if.end27:                                         ; preds = %if.then24
  br label %if.end28

if.end28:                                         ; preds = %if.end27, %if.end22
  %22 = load ptr, ptr %v.addr, align 8
  %23 = load ptr, ptr %obj.addr, align 8
  %has_dsp_policy = getelementptr inbounds %struct.AudiodevOssOptions, ptr %23, i32 0, i32 6
  %call29 = call zeroext i1 @visit_optional(ptr noundef %22, ptr noundef @.str.24, ptr noundef %has_dsp_policy)
  br i1 %call29, label %if.then30, label %if.end34

if.then30:                                        ; preds = %if.end28
  %24 = load ptr, ptr %v.addr, align 8
  %25 = load ptr, ptr %obj.addr, align 8
  %dsp_policy = getelementptr inbounds %struct.AudiodevOssOptions, ptr %25, i32 0, i32 7
  %26 = load ptr, ptr %errp.addr, align 8
  %call31 = call zeroext i1 @visit_type_uint32(ptr noundef %24, ptr noundef @.str.24, ptr noundef %dsp_policy, ptr noundef %26)
  br i1 %call31, label %if.end33, label %if.then32

if.then32:                                        ; preds = %if.then30
  store i1 false, ptr %retval, align 1
  br label %return

if.end33:                                         ; preds = %if.then30
  br label %if.end34

if.end34:                                         ; preds = %if.end33, %if.end28
  store i1 true, ptr %retval, align 1
  br label %return

return:                                           ; preds = %if.end34, %if.then32, %if.then26, %if.then20, %if.then14, %if.then8
  %27 = load i1, ptr %retval, align 1
  ret i1 %27
}