; Function Attrs: nounwind sspstrong uwtable
define dso_local noundef zeroext i1 @visit_type_AudiodevOssOptions_members(ptr noundef %v, ptr noundef %obj, ptr noundef %errp) local_unnamed_addr #0 {
entry:
  %has_in = alloca i8, align 1
  %has_out = alloca i8, align 1
  %0 = load ptr, ptr %obj, align 8
  %tobool = icmp ne ptr %0, null
  %frombool = zext i1 %tobool to i8
  store i8 %frombool, ptr %has_in, align 1
  %out = getelementptr inbounds nuw i8, ptr %obj, i64 8
  %1 = load ptr, ptr %out, align 8
  %tobool2 = icmp ne ptr %1, null
  %frombool5 = zext i1 %tobool2 to i8
  store i8 %frombool5, ptr %has_out, align 1
  %call = call zeroext i1 @visit_optional(ptr noundef %v, ptr noundef nonnull @.str.9, ptr noundef nonnull %has_in) #5
  br i1 %call, label %if.then, label %if.end9

if.then:                                          ; preds = %entry
  %call7 = call zeroext i1 @visit_type_AudiodevOssPerDirectionOptions(ptr noundef %v, ptr noundef nonnull @.str.9, ptr noundef nonnull %obj, ptr noundef %errp)
  br i1 %call7, label %if.end9, label %return

if.end9:                                          ; preds = %if.then, %entry
  %call10 = call zeroext i1 @visit_optional(ptr noundef %v, ptr noundef nonnull @.str.10, ptr noundef nonnull %has_out) #5
  br i1 %call10, label %if.then11, label %if.end16

if.then11:                                        ; preds = %if.end9
  %call13 = call zeroext i1 @visit_type_AudiodevOssPerDirectionOptions(ptr noundef %v, ptr noundef nonnull @.str.10, ptr noundef nonnull %out, ptr noundef %errp)
  br i1 %call13, label %if.end16, label %return

if.end16:                                         ; preds = %if.then11, %if.end9
  %has_try_mmap = getelementptr inbounds nuw i8, ptr %obj, i64 16
  %call17 = call zeroext i1 @visit_optional(ptr noundef %v, ptr noundef nonnull @.str.22, ptr noundef nonnull %has_try_mmap) #5
  br i1 %call17, label %if.then18, label %if.end22

if.then18:                                        ; preds = %if.end16
  %try_mmap = getelementptr inbounds nuw i8, ptr %obj, i64 17
  %call19 = call zeroext i1 @visit_type_bool(ptr noundef %v, ptr noundef nonnull @.str.22, ptr noundef nonnull %try_mmap, ptr noundef %errp) #5
  br i1 %call19, label %if.end22, label %return

if.end22:                                         ; preds = %if.then18, %if.end16
  %has_exclusive = getelementptr inbounds nuw i8, ptr %obj, i64 18
  %call23 = call zeroext i1 @visit_optional(ptr noundef %v, ptr noundef nonnull @.str.23, ptr noundef nonnull %has_exclusive) #5
  br i1 %call23, label %if.then24, label %if.end28

if.then24:                                        ; preds = %if.end22
  %exclusive = getelementptr inbounds nuw i8, ptr %obj, i64 19
  %call25 = call zeroext i1 @visit_type_bool(ptr noundef %v, ptr noundef nonnull @.str.23, ptr noundef nonnull %exclusive, ptr noundef %errp) #5
  br i1 %call25, label %if.end28, label %return

if.end28:                                         ; preds = %if.then24, %if.end22
  %has_dsp_policy = getelementptr inbounds nuw i8, ptr %obj, i64 20
  %call29 = call zeroext i1 @visit_optional(ptr noundef %v, ptr noundef nonnull @.str.24, ptr noundef nonnull %has_dsp_policy) #5
  br i1 %call29, label %if.then30, label %if.end34

if.then30:                                        ; preds = %if.end28
  %dsp_policy = getelementptr inbounds nuw i8, ptr %obj, i64 24
  %call31 = call zeroext i1 @visit_type_uint32(ptr noundef %v, ptr noundef nonnull @.str.24, ptr noundef nonnull %dsp_policy, ptr noundef %errp) #5
  br i1 %call31, label %if.end34, label %return

if.end34:                                         ; preds = %if.then30, %if.end28
  br label %return

return:                                           ; preds = %if.then30, %if.then24, %if.then18, %if.then11, %if.then, %if.end34
  %retval.0 = phi i1 [ true, %if.end34 ], [ false, %if.then ], [ false, %if.then11 ], [ false, %if.then18 ], [ false, %if.then24 ], [ false, %if.then30 ]
  ret i1 %retval.0
}